target datalayout = "e-m:e-p270:32:32-p271:32:32-p272:64:64-i64:64-i128:128-f80:128-n8:16:32:64-S128"
target triple = "x86_64-pc-linux-gnu"

; Function Attrs: nounwind uwtable
define internal i32 @read_num_type(ptr noundef %0, i64 noundef %1, i64 noundef %2) #0 {
  %4 = alloca i32, align 4
  %5 = alloca ptr, align 8
  %6 = alloca i64, align 8
  %7 = alloca i64, align 8
  %8 = alloca i32, align 4
  %9 = alloca i64, align 8
  store ptr %0, ptr %5, align 8
  store i64 %1, ptr %6, align 8
  store i64 %2, ptr %7, align 8
  store i32 0, ptr %8, align 4
  %10 = load i64, ptr %6, align 8
  %11 = add i64 %10, 1
  store i64 %11, ptr %6, align 8
  %12 = load ptr, ptr %5, align 8
  %13 = load i64, ptr %6, align 8
  %14 = getelementptr inbounds i8, ptr %12, i64 %13
  %15 = load i8, ptr %14, align 1
  %16 = sext i8 %15 to i32
  %17 = icmp eq i32 %16, 48
  br i1 %17, label %18, label %19

18:                                               ; preds = %3
  store i32 -1, ptr %4, align 4
  br label %46

19:                                               ; preds = %3
  %20 = load i64, ptr %6, align 8
  store i64 %20, ptr %9, align 8
  br label %21

21:                                               ; preds = %41, %19
  %22 = load i64, ptr %9, align 8
  %23 = load i64, ptr %7, align 8
  %24 = icmp ult i64 %22, %23
  br i1 %24, label %25, label %44

25:                                               ; preds = %21
  %26 = load i32, ptr %8, align 4
  %27 = mul nsw i32 %26, 10
  store i32 %27, ptr %8, align 4
  %28 = load i32, ptr %8, align 4
  %29 = icmp sgt i32 %28, 1024
  br i1 %29, label %30, label %32

30:                                               ; preds = %25
  %31 = load i32, ptr %8, align 4
  store i32 %31, ptr %4, align 4
  br label %46

32:                                               ; preds = %25
  %33 = load ptr, ptr %5, align 8
  %34 = load i64, ptr %9, align 8
  %35 = getelementptr inbounds i8, ptr %33, i64 %34
  %36 = load i8, ptr %35, align 1
  %37 = sext i8 %36 to i32
  %38 = sub nsw i32 %37, 48
  %39 = load i32, ptr %8, align 4
  %40 = add nsw i32 %39, %38
  store i32 %40, ptr %8, align 4
  br label %41

41:                                               ; preds = %32
  %42 = load i64, ptr %9, align 8
  %43 = add i64 %42, 1
  store i64 %43, ptr %9, align 8
  br label %21, !llvm.loop !12

44:                                               ; preds = %21
  %45 = load i32, ptr %8, align 4
  store i32 %45, ptr %4, align 4
  br label %46

46:                                               ; preds = %44, %30, %18
  %47 = load i32, ptr %4, align 4
  ret i32 %47
}

; Function Attrs: nounwind uwtable
define dso_local i32 @read_int_suffix(ptr noundef %0, i32 noundef %1, i32 noundef %2, i8 noundef signext %3) #0 {
  %5 = alloca i32, align 4
  %6 = alloca ptr, align 8
  %7 = alloca i32, align 4
  %8 = alloca i32, align 4
  %9 = alloca i8, align 1
  store ptr %0, ptr %6, align 8
  store i32 %1, ptr %7, align 4
  store i32 %2, ptr %8, align 4
  store i8 %3, ptr %9, align 1
  %10 = load i8, ptr %9, align 1
  %11 = sext i8 %10 to i32
  %12 = or i32 %11, 32
  switch i32 %12, label %50 [
    i32 105, label %13
    i32 108, label %20
    i32 117, label %27
  ]

13:                                               ; preds = %4
  %14 = load ptr, ptr %6, align 8
  %15 = load i32, ptr %7, align 4
  %16 = sext i32 %15 to i64
  %17 = load i32, ptr %8, align 4
  %18 = sext i32 %17 to i64
  %19 = call i32 @read_num_type(ptr noundef %14, i64 noundef %16, i64 noundef %18)
  store i32 %19, ptr %5, align 4
  br label %51

20:                                               ; preds = %4
  %21 = load i32, ptr %7, align 4
  %22 = load i32, ptr %8, align 4
  %23 = sub nsw i32 %22, 1
  %24 = icmp ne i32 %21, %23
  br i1 %24, label %25, label %26

25:                                               ; preds = %20
  store i32 -1, ptr %5, align 4
  br label %51

26:                                               ; preds = %20
  store i32 64, ptr %5, align 4
  br label %51

27:                                               ; preds = %4
  %28 = load i32, ptr %7, align 4
  %29 = load i32, ptr %8, align 4
  %30 = sub nsw i32 %29, 2
  %31 = icmp eq i32 %28, %30
  br i1 %31, label %32, label %43

32:                                               ; preds = %27
  %33 = load ptr, ptr %6, align 8
  %34 = load i32, ptr %7, align 4
  %35 = add nsw i32 %34, 1
  %36 = sext i32 %35 to i64
  %37 = getelementptr inbounds i8, ptr %33, i64 %36
  %38 = load i8, ptr %37, align 1
  %39 = sext i8 %38 to i32
  %40 = or i32 %39, 32
  %41 = icmp eq i32 %40, 108
  br i1 %41, label %42, label %43

42:                                               ; preds = %32
  store i32 64, ptr %5, align 4
  br label %51

43:                                               ; preds = %32, %27
  %44 = load ptr, ptr %6, align 8
  %45 = load i32, ptr %7, align 4
  %46 = sext i32 %45 to i64
  %47 = load i32, ptr %8, align 4
  %48 = sext i32 %47 to i64
  %49 = call i32 @read_num_type(ptr noundef %44, i64 noundef %46, i64 noundef %48)
  store i32 %49, ptr %5, align 4
  br label %51

50:                                               ; preds = %4
  store i32 -1, ptr %5, align 4
  br label %51

51:                                               ; preds = %50, %43, %42, %26, %25, %13
  %52 = load i32, ptr %5, align 4
  ret i32 %52
}