; Function Attrs: nofree norecurse nosync nounwind memory(argmem: read) uwtable
define dso_local i32 @read_int_suffix(ptr nocapture noundef readonly %0, i32 noundef %1, i32 noundef %2, i8 noundef signext %3) local_unnamed_addr #4 {
  %5 = or i8 %3, 32
  switch i8 %5, label %read_num_type.exit [
    i8 105, label %6
    i8 108, label %23
    i8 117, label %25
  ]

6:                                                ; preds = %4
  %7 = sext i32 %1 to i64
  %8 = sext i32 %2 to i64
  %9 = add nsw i64 %7, 1
  %10 = getelementptr inbounds i8, ptr %0, i64 %9
  %11 = load i8, ptr %10, align 1
  %12 = icmp eq i8 %11, 48
  br i1 %12, label %read_num_type.exit, label %.preheader.i

.preheader.i:                                     ; preds = %6
  %13 = icmp ult i64 %9, %8
  br i1 %13, label %.lr.ph.i, label %read_num_type.exit

.lr.ph.i:                                         ; preds = %.preheader.i, %16
  %.018.i = phi i64 [ %22, %16 ], [ %9, %.preheader.i ]
  %.01417.i = phi i32 [ %21, %16 ], [ 0, %.preheader.i ]
  %14 = mul nsw i32 %.01417.i, 10
  %15 = icmp sgt i32 %.01417.i, 102
  br i1 %15, label %read_num_type.exit, label %16

16:                                               ; preds = %.lr.ph.i
  %17 = getelementptr inbounds i8, ptr %0, i64 %.018.i
  %18 = load i8, ptr %17, align 1
  %19 = sext i8 %18 to i32
  %20 = add i32 %14, -48
  %21 = add i32 %20, %19
  %22 = add i64 %.018.i, 1
  %exitcond.not.i = icmp eq i64 %22, %8
  br i1 %exitcond.not.i, label %read_num_type.exit, label %.lr.ph.i, !llvm.loop !12

23:                                               ; preds = %4
  %24 = add nsw i32 %2, -1
  %.not = icmp eq i32 %24, %1
  %. = select i1 %.not, i32 64, i32 -1
  br label %read_num_type.exit

25:                                               ; preds = %4
  %26 = add nsw i32 %2, -2
  %27 = icmp eq i32 %26, %1
  %28 = sext i32 %1 to i64
  br i1 %27, label %29, label %._crit_edge

29:                                               ; preds = %25
  %30 = getelementptr i8, ptr %0, i64 %28
  %31 = getelementptr i8, ptr %30, i64 1
  %32 = load i8, ptr %31, align 1
  %33 = and i8 %32, -33
  %34 = icmp eq i8 %33, 76
  br i1 %34, label %read_num_type.exit, label %._crit_edge

._crit_edge:                                      ; preds = %25, %29
  %35 = sext i32 %2 to i64
  %36 = add nsw i64 %28, 1
  %37 = getelementptr inbounds i8, ptr %0, i64 %36
  %38 = load i8, ptr %37, align 1
  %39 = icmp eq i8 %38, 48
  br i1 %39, label %read_num_type.exit, label %.preheader.i14

.preheader.i14:                                   ; preds = %._crit_edge
  %40 = icmp ult i64 %36, %35
  br i1 %40, label %.lr.ph.i16, label %read_num_type.exit

.lr.ph.i16:                                       ; preds = %.preheader.i14, %43
  %.018.i17 = phi i64 [ %49, %43 ], [ %36, %.preheader.i14 ]
  %.01417.i18 = phi i32 [ %48, %43 ], [ 0, %.preheader.i14 ]
  %41 = mul nsw i32 %.01417.i18, 10
  %42 = icmp sgt i32 %.01417.i18, 102
  br i1 %42, label %read_num_type.exit, label %43

43:                                               ; preds = %.lr.ph.i16
  %44 = getelementptr inbounds i8, ptr %0, i64 %.018.i17
  %45 = load i8, ptr %44, align 1
  %46 = sext i8 %45 to i32
  %47 = add i32 %41, -48
  %48 = add i32 %47, %46
  %49 = add i64 %.018.i17, 1
  %exitcond.not.i19 = icmp eq i64 %49, %35
  br i1 %exitcond.not.i19, label %read_num_type.exit, label %.lr.ph.i16, !llvm.loop !12

read_num_type.exit:                               ; preds = %43, %.lr.ph.i16, %16, %.lr.ph.i, %.preheader.i14, %._crit_edge, %.preheader.i, %6, %4, %29, %23
  %.0 = phi i32 [ %., %23 ], [ 64, %29 ], [ -1, %4 ], [ -1, %6 ], [ 0, %.preheader.i ], [ -1, %._crit_edge ], [ 0, %.preheader.i14 ], [ %21, %16 ], [ %14, %.lr.ph.i ], [ %48, %43 ], [ %41, %.lr.ph.i16 ]
  ret i32 %.0
}